target datalayout = "e-m:e-p270:32:32-p271:32:32-p272:64:64-i64:64-i128:128-f80:128-n8:16:32:64-S128"
target triple = "x86_64-pc-linux-gnu"

%struct.CVodeMemRec = type { double, ptr, ptr, i32, i32, i32, double, double, ptr, i32, ptr, ptr, i32, ptr, i32, i32, double, double, ptr, i32, i32, i32, ptr, ptr, ptr, i32, i32, ptr, ptr, ptr, i32, double, i32, i32, double, ptr, ptr, i32, ptr, ptr, i32, i32, i32, double, ptr, ptr, [13 x ptr], ptr, ptr, ptr, ptr, ptr, [13 x ptr], ptr, ptr, ptr, ptr, [13 x ptr], ptr, ptr, ptr, ptr, ptr, i32, [13 x ptr], ptr, ptr, ptr, ptr, ptr, i32, double, i32, i32, i32, i32, i32, double, double, double, double, double, double, double, double, [14 x double], [6 x double], [13 x double], double, double, double, double, double, double, double, double, double, double, double, i32, ptr, i32, i64, i32, i32, i32, i32, i32, double, double, double, i64, i64, i64, i64, i64, i64, i64, i64, i64, ptr, i64, i64, ptr, i64, i64, i64, i64, i64, i64, i32, i64, i64, i64, i64, i64, i64, double, double, double, ptr, ptr, ptr, ptr, ptr, i32, i32, i64, double, double, double, i32, double, i32, i32, i32, i32, i32, i32, i32, i32, i32, i32, i32, i32, i32, i32, i32, i32, ptr, ptr, ptr, i32, [6 x [4 x double]], i32, i64, ptr, i32, ptr, ptr, double, double, double, ptr, ptr, ptr, double, double, i32, i32, i64, ptr, i32, i32, ptr, i32 }
%struct.CVadjMemRec = type { double, double, i32, i32, double, ptr, i32, ptr, i32, ptr, i32, ptr, i64, ptr, i64, i32, ptr, ptr, ptr, ptr, i32, i32, i32, i32, [13 x ptr], [13 x ptr], [13 x double], ptr, ptr, i64 }
%struct.CVodeBMemRec = type { i32, double, ptr, i32, i32, ptr, ptr, ptr, ptr, ptr, ptr, ptr, ptr, ptr, double, ptr, ptr }
%struct.CVSpilsMemRecB = type { ptr, ptr, ptr, ptr, ptr, ptr, ptr }

@.str = private unnamed_addr constant [8 x i8] c"CVSPILS\00", align 1
@.str.42 = private unnamed_addr constant [25 x i8] c"Bad t for interpolation.\00", align 1
@.str.45 = private unnamed_addr constant [26 x i8] c"cvSpilsPrecSolveBSWrapper\00", align 1

; Function Attrs: nounwind uwtable
define internal i32 @cvSpilsPrecSolveBSWrapper(double noundef %0, ptr noundef %1, ptr noundef %2, ptr noundef %3, ptr noundef %4, double noundef %5, double noundef %6, i32 noundef %7, ptr noundef %8, ptr noundef %9) #0 {
  %11 = alloca i32, align 4
  %12 = alloca double, align 8
  %13 = alloca ptr, align 8
  %14 = alloca ptr, align 8
  %15 = alloca ptr, align 8
  %16 = alloca ptr, align 8
  %17 = alloca double, align 8
  %18 = alloca double, align 8
  %19 = alloca i32, align 4
  %20 = alloca ptr, align 8
  %21 = alloca ptr, align 8
  %22 = alloca ptr, align 8
  %23 = alloca ptr, align 8
  %24 = alloca ptr, align 8
  %25 = alloca ptr, align 8
  %26 = alloca i32, align 4
  %27 = alloca i32, align 4
  %28 = alloca i32, align 4
  store double %0, ptr %12, align 8, !tbaa !29
  store ptr %1, ptr %13, align 8, !tbaa !48
  store ptr %2, ptr %14, align 8, !tbaa !48
  store ptr %3, ptr %15, align 8, !tbaa !48
  store ptr %4, ptr %16, align 8, !tbaa !48
  store double %5, ptr %17, align 8, !tbaa !29
  store double %6, ptr %18, align 8, !tbaa !29
  store i32 %7, ptr %19, align 4, !tbaa !7
  store ptr %8, ptr %20, align 8, !tbaa !3
  store ptr %9, ptr %21, align 8, !tbaa !48
  call void @llvm.lifetime.start.p0(i64 8, ptr %22) #5
  call void @llvm.lifetime.start.p0(i64 8, ptr %23) #5
  call void @llvm.lifetime.start.p0(i64 8, ptr %24) #5
  call void @llvm.lifetime.start.p0(i64 8, ptr %25) #5
  call void @llvm.lifetime.start.p0(i64 4, ptr %26) #5
  call void @llvm.lifetime.start.p0(i64 4, ptr %27) #5
  %29 = load ptr, ptr %20, align 8, !tbaa !3
  store ptr %29, ptr %22, align 8, !tbaa !9
  %30 = load ptr, ptr %22, align 8, !tbaa !9
  %31 = getelementptr inbounds nuw %struct.CVodeMemRec, ptr %30, i32 0, i32 194
  %32 = load ptr, ptr %31, align 8, !tbaa !63
  store ptr %32, ptr %23, align 8, !tbaa !64
  %33 = load ptr, ptr %23, align 8, !tbaa !64
  %34 = getelementptr inbounds nuw %struct.CVadjMemRec, ptr %33, i32 0, i32 7
  %35 = load ptr, ptr %34, align 8, !tbaa !87
  store ptr %35, ptr %24, align 8, !tbaa !71
  %36 = load ptr, ptr %24, align 8, !tbaa !71
  %37 = getelementptr inbounds nuw %struct.CVodeBMemRec, ptr %36, i32 0, i32 10
  %38 = load ptr, ptr %37, align 8, !tbaa !81
  store ptr %38, ptr %25, align 8, !tbaa !82
  %39 = load ptr, ptr %23, align 8, !tbaa !64
  %40 = getelementptr inbounds nuw %struct.CVadjMemRec, ptr %39, i32 0, i32 23
  %41 = load i32, ptr %40, align 4, !tbaa !95
  %42 = icmp ne i32 %41, 0
  br i1 %42, label %43, label %56

43:                                               ; preds = %10
  %44 = load ptr, ptr %23, align 8, !tbaa !64
  %45 = getelementptr inbounds nuw %struct.CVadjMemRec, ptr %44, i32 0, i32 19
  %46 = load ptr, ptr %45, align 8, !tbaa !88
  %47 = load ptr, ptr %22, align 8, !tbaa !9
  %48 = load double, ptr %12, align 8, !tbaa !29
  %49 = load ptr, ptr %23, align 8, !tbaa !64
  %50 = getelementptr inbounds nuw %struct.CVadjMemRec, ptr %49, i32 0, i32 27
  %51 = load ptr, ptr %50, align 8, !tbaa !89
  %52 = load ptr, ptr %23, align 8, !tbaa !64
  %53 = getelementptr inbounds nuw %struct.CVadjMemRec, ptr %52, i32 0, i32 28
  %54 = load ptr, ptr %53, align 8, !tbaa !96
  %55 = call i32 %46(ptr noundef %47, double noundef %48, ptr noundef %51, ptr noundef %54)
  store i32 %55, ptr %27, align 4, !tbaa !7
  br label %66

56:                                               ; preds = %10
  %57 = load ptr, ptr %23, align 8, !tbaa !64
  %58 = getelementptr inbounds nuw %struct.CVadjMemRec, ptr %57, i32 0, i32 19
  %59 = load ptr, ptr %58, align 8, !tbaa !88
  %60 = load ptr, ptr %22, align 8, !tbaa !9
  %61 = load double, ptr %12, align 8, !tbaa !29
  %62 = load ptr, ptr %23, align 8, !tbaa !64
  %63 = getelementptr inbounds nuw %struct.CVadjMemRec, ptr %62, i32 0, i32 27
  %64 = load ptr, ptr %63, align 8, !tbaa !89
  %65 = call i32 %59(ptr noundef %60, double noundef %61, ptr noundef %64, ptr noundef null)
  store i32 %65, ptr %27, align 4, !tbaa !7
  br label %66

66:                                               ; preds = %56, %43
  %67 = load i32, ptr %27, align 4, !tbaa !7
  %68 = icmp ne i32 %67, 0
  br i1 %68, label %69, label %71

69:                                               ; preds = %66
  %70 = load ptr, ptr %22, align 8, !tbaa !9
  call void (ptr, i32, ptr, ptr, ptr, ...) @cvProcessError(ptr noundef %70, i32 noundef -1, ptr noundef @.str, ptr noundef @.str.45, ptr noundef @.str.42)
  store i32 -1, ptr %11, align 4
  store i32 1, ptr %28, align 4
  br label %95

71:                                               ; preds = %66
  %72 = load ptr, ptr %25, align 8, !tbaa !82
  %73 = getelementptr inbounds nuw %struct.CVSpilsMemRecB, ptr %72, i32 0, i32 5
  %74 = load ptr, ptr %73, align 8, !tbaa !94
  %75 = load double, ptr %12, align 8, !tbaa !29
  %76 = load ptr, ptr %23, align 8, !tbaa !64
  %77 = getelementptr inbounds nuw %struct.CVadjMemRec, ptr %76, i32 0, i32 27
  %78 = load ptr, ptr %77, align 8, !tbaa !89
  %79 = load ptr, ptr %23, align 8, !tbaa !64
  %80 = getelementptr inbounds nuw %struct.CVadjMemRec, ptr %79, i32 0, i32 28
  %81 = load ptr, ptr %80, align 8, !tbaa !96
  %82 = load ptr, ptr %13, align 8, !tbaa !48
  %83 = load ptr, ptr %14, align 8, !tbaa !48
  %84 = load ptr, ptr %15, align 8, !tbaa !48
  %85 = load ptr, ptr %16, align 8, !tbaa !48
  %86 = load double, ptr %17, align 8, !tbaa !29
  %87 = load double, ptr %18, align 8, !tbaa !29
  %88 = load i32, ptr %19, align 4, !tbaa !7
  %89 = load ptr, ptr %24, align 8, !tbaa !71
  %90 = getelementptr inbounds nuw %struct.CVodeBMemRec, ptr %89, i32 0, i32 9
  %91 = load ptr, ptr %90, align 8, !tbaa !90
  %92 = load ptr, ptr %21, align 8, !tbaa !48
  %93 = call i32 %74(double noundef %75, ptr noundef %78, ptr noundef %81, ptr noundef %82, ptr noundef %83, ptr noundef %84, ptr noundef %85, double noundef %86, double noundef %87, i32 noundef %88, ptr noundef %91, ptr noundef %92)
  store i32 %93, ptr %26, align 4, !tbaa !7
  %94 = load i32, ptr %26, align 4, !tbaa !7
  store i32 %94, ptr %11, align 4
  store i32 1, ptr %28, align 4
  br label %95

95:                                               ; preds = %71, %69
  call void @llvm.lifetime.end.p0(i64 4, ptr %27) #5
  call void @llvm.lifetime.end.p0(i64 4, ptr %26) #5
  call void @llvm.lifetime.end.p0(i64 8, ptr %25) #5
  call void @llvm.lifetime.end.p0(i64 8, ptr %24) #5
  call void @llvm.lifetime.end.p0(i64 8, ptr %23) #5
  call void @llvm.lifetime.end.p0(i64 8, ptr %22) #5
  %96 = load i32, ptr %11, align 4
  ret i32 %96
}